(dp0
V061B0190
p1
F1.5
sV051F0020
p2
F3.0
sV021E0010
p3
F2.5
sV081C0130
p4
F2.5
sV211G0230
p5
F2.0
sV061B0212
p6
F3.0
sV21191360
p7
F2.0
sV21121350
p8
F4.0
sV21191320
p9
F2.0
sV211C0010
p10
F2.5
sV031E0031
p11
F4.0
sV061B9090
p12
F2.5
sV051F0030
p13
F3.0
sV021E0020
p14
F2.5
sV21120070
p15
F2.5
sV041S0170
p16
F3.0
sV111M0080
p17
F1.5
sV211B0010
p18
F4.0
sV40100600
p19
F2.0
sV031I0020
p20
F2.0
sV21191051
p21
F4.5
sV211G0220
p22
F3.0
sV21120920
p23
F2.0
sV481I0100
p24
F1.5
sV21121320
p25
F2.5
sV251J0030
p26
F1.5
sV211D0130
p27
F4.5
sV041H0400
p28
F1.5
sV081C0251
p29
F1.5
sV061B0180
p30
F2.0
sV21121230
p31
F2.0
sV061B0170
p32
F4.5
sV21120491
p33
F4.0
sV211G0210
p34
F3.0
sV031E0010
p35
F1.5
sV211D0100
p36
F5.0
sV371E0010
p37
F1.0
sV051F0600
p38
F1.0
sV021E0040
p39
F2.5
sV041I0510
p40
F2.0
sV03110021
p41
F2.0
sV40101300
p42
F1.0
sV40100500
p43
F1.0
sV21120510
p44
F2.5
sV061B0222
p45
F3.0
sV21121300
p46
F1.5
sV21191370
p47
F2.0
sV211C0020
p48
F2.5
sV21120350
p49
F2.0
sV21191070
p50
F2.0
sV21121141
p51
F3.0
sV21121340
p52
F4.5
s.